target datalayout = "e-m:e-p270:32:32-p271:32:32-p272:64:64-i64:64-i128:128-f80:128-n8:16:32:64-S128"
target triple = "x86_64-pc-linux-gnu"

%struct.lua_TValue = type { %union.Value, [1 x i32], i32 }
%union.Value = type { ptr }
%struct.Table = type { i8, i8, i8, i8, i8, i8, i8, i8, i32, %union.anon, ptr, ptr, ptr, ptr }
%union.anon = type { i32 }
%struct.LuaNode = type { %struct.lua_TValue, %struct.TKey }
%struct.TKey = type { %union.Value, [1 x i32], i32 }

; Function Attrs: mustprogress nounwind uwtable
define dso_local noundef zeroext i1 @_ZN4Luau7CodeGen16forgLoopNodeIterEP9lua_StateP5TableiP10lua_TValue(ptr noundef %0, ptr noundef %1, i32 noundef %2, ptr noundef %3) #0 {
  %5 = alloca i1, align 1
  %6 = alloca ptr, align 8
  %7 = alloca ptr, align 8
  %8 = alloca i32, align 4
  %9 = alloca ptr, align 8
  %10 = alloca i32, align 4
  %11 = alloca i32, align 4
  %12 = alloca ptr, align 8
  %13 = alloca ptr, align 8
  %14 = alloca ptr, align 8
  %15 = alloca ptr, align 8
  %16 = alloca ptr, align 8
  %17 = alloca ptr, align 8
  store ptr %0, ptr %6, align 8
  store ptr %1, ptr %7, align 8
  store i32 %2, ptr %8, align 4
  store ptr %3, ptr %9, align 8
  %18 = load ptr, ptr %7, align 8
  %19 = getelementptr inbounds %struct.Table, ptr %18, i32 0, i32 8
  %20 = load i32, ptr %19, align 8
  store i32 %20, ptr %10, align 4
  %21 = load ptr, ptr %7, align 8
  %22 = getelementptr inbounds %struct.Table, ptr %21, i32 0, i32 6
  %23 = load i8, ptr %22, align 2
  %24 = zext i8 %23 to i32
  %25 = shl i32 1, %24
  store i32 %25, ptr %11, align 4
  br label %26

26:                                               ; preds = %88, %4
  %27 = load i32, ptr %8, align 4
  %28 = load i32, ptr %10, align 4
  %29 = sub nsw i32 %27, %28
  %30 = load i32, ptr %11, align 4
  %31 = icmp ult i32 %29, %30
  br i1 %31, label %32, label %91

32:                                               ; preds = %26
  %33 = load ptr, ptr %7, align 8
  %34 = getelementptr inbounds %struct.Table, ptr %33, i32 0, i32 12
  %35 = load ptr, ptr %34, align 8
  %36 = load i32, ptr %8, align 4
  %37 = load i32, ptr %10, align 4
  %38 = sub nsw i32 %36, %37
  %39 = sext i32 %38 to i64
  %40 = getelementptr inbounds %struct.LuaNode, ptr %35, i64 %39
  store ptr %40, ptr %12, align 8
  %41 = load ptr, ptr %12, align 8
  %42 = getelementptr inbounds %struct.LuaNode, ptr %41, i32 0, i32 0
  %43 = getelementptr inbounds %struct.lua_TValue, ptr %42, i32 0, i32 2
  %44 = load i32, ptr %43, align 4
  %45 = icmp eq i32 %44, 0
  br i1 %45, label %88, label %46

46:                                               ; preds = %32
  %47 = load ptr, ptr %9, align 8
  %48 = getelementptr inbounds %struct.lua_TValue, ptr %47, i64 2
  store ptr %48, ptr %13, align 8
  %49 = load i32, ptr %8, align 4
  %50 = add nsw i32 %49, 1
  %51 = sext i32 %50 to i64
  %52 = inttoptr i64 %51 to ptr
  %53 = load ptr, ptr %13, align 8
  %54 = getelementptr inbounds %struct.lua_TValue, ptr %53, i32 0, i32 0
  store ptr %52, ptr %54, align 8
  %55 = load ptr, ptr %13, align 8
  %56 = getelementptr inbounds %struct.lua_TValue, ptr %55, i32 0, i32 1
  %57 = getelementptr inbounds [1 x i32], ptr %56, i64 0, i64 0
  store i32 128, ptr %57, align 8
  %58 = load ptr, ptr %13, align 8
  %59 = getelementptr inbounds %struct.lua_TValue, ptr %58, i32 0, i32 2
  store i32 2, ptr %59, align 4
  %60 = load ptr, ptr %9, align 8
  %61 = getelementptr inbounds %struct.lua_TValue, ptr %60, i64 3
  store ptr %61, ptr %14, align 8
  %62 = load ptr, ptr %12, align 8
  store ptr %62, ptr %15, align 8
  %63 = load ptr, ptr %15, align 8
  %64 = getelementptr inbounds %struct.LuaNode, ptr %63, i32 0, i32 1
  %65 = getelementptr inbounds %struct.TKey, ptr %64, i32 0, i32 0
  %66 = load ptr, ptr %14, align 8
  %67 = getelementptr inbounds %struct.lua_TValue, ptr %66, i32 0, i32 0
  call void @llvm.memcpy.p0.p0.i64(ptr align 8 %67, ptr align 8 %65, i64 8, i1 false)
  %68 = load ptr, ptr %14, align 8
  %69 = getelementptr inbounds %struct.lua_TValue, ptr %68, i32 0, i32 1
  %70 = getelementptr inbounds [1 x i32], ptr %69, i64 0, i64 0
  %71 = load ptr, ptr %15, align 8
  %72 = getelementptr inbounds %struct.LuaNode, ptr %71, i32 0, i32 1
  %73 = getelementptr inbounds %struct.TKey, ptr %72, i32 0, i32 1
  %74 = getelementptr inbounds [1 x i32], ptr %73, i64 0, i64 0
  call void @llvm.memcpy.p0.p0.i64(ptr align 8 %70, ptr align 8 %74, i64 4, i1 false)
  %75 = load ptr, ptr %15, align 8
  %76 = getelementptr inbounds %struct.LuaNode, ptr %75, i32 0, i32 1
  %77 = getelementptr inbounds %struct.TKey, ptr %76, i32 0, i32 2
  %78 = load i32, ptr %77, align 4
  %79 = and i32 %78, 15
  %80 = load ptr, ptr %14, align 8
  %81 = getelementptr inbounds %struct.lua_TValue, ptr %80, i32 0, i32 2
  store i32 %79, ptr %81, align 4
  %82 = load ptr, ptr %12, align 8
  %83 = getelementptr inbounds %struct.LuaNode, ptr %82, i32 0, i32 0
  store ptr %83, ptr %16, align 8
  %84 = load ptr, ptr %9, align 8
  %85 = getelementptr inbounds %struct.lua_TValue, ptr %84, i64 4
  store ptr %85, ptr %17, align 8
  %86 = load ptr, ptr %16, align 8
  %87 = load ptr, ptr %17, align 8
  call void @llvm.memcpy.p0.p0.i64(ptr align 8 %87, ptr align 8 %86, i64 16, i1 false)
  store i1 true, ptr %5, align 1
  br label %92

88:                                               ; preds = %32
  %89 = load i32, ptr %8, align 4
  %90 = add nsw i32 %89, 1
  store i32 %90, ptr %8, align 4
  br label %26, !llvm.loop !8

91:                                               ; preds = %26
  store i1 false, ptr %5, align 1
  br label %92

92:                                               ; preds = %91, %46
  %93 = load i1, ptr %5, align 1
  ret i1 %93
}