; Function Attrs: mustprogress nofree norecurse nosync nounwind memory(readwrite, inaccessiblemem: none) uwtable
define dso_local noundef zeroext i1 @_ZN4Luau7CodeGen16forgLoopNodeIterEP9lua_StateP5TableiP10lua_TValue(ptr nocapture noundef readnone %0, ptr nocapture noundef readonly %1, i32 noundef %2, ptr nocapture noundef writeonly %3) local_unnamed_addr #0 {
  %5 = getelementptr inbounds i8, ptr %1, i64 8
  %6 = load i32, ptr %5, align 8
  %7 = getelementptr inbounds i8, ptr %1, i64 6
  %8 = load i8, ptr %7, align 2
  %9 = zext nneg i8 %8 to i32
  %10 = sub nsw i32 %2, %6
  %.highbits32 = lshr i32 %10, %9
  %11 = icmp eq i32 %.highbits32, 0
  br i1 %11, label %.lr.ph, label %.loopexit

.lr.ph:                                           ; preds = %4
  %12 = getelementptr inbounds i8, ptr %1, i64 32
  %13 = load ptr, ptr %12, align 8
  %14 = zext i32 %2 to i64
  br label %15

15:                                               ; preds = %.lr.ph, %40
  %indvars.iv = phi i64 [ %14, %.lr.ph ], [ %indvars.iv.next, %40 ]
  %16 = phi i32 [ %10, %.lr.ph ], [ %42, %40 ]
  %17 = sext i32 %16 to i64
  %18 = getelementptr inbounds %struct.LuaNode, ptr %13, i64 %17
  %19 = getelementptr inbounds i8, ptr %18, i64 12
  %20 = load i32, ptr %19, align 4
  %21 = icmp eq i32 %20, 0
  br i1 %21, label %40, label %22

22:                                               ; preds = %15
  %23 = getelementptr inbounds i8, ptr %3, i64 32
  %24 = shl i64 %indvars.iv, 32
  %sext = add i64 %24, 4294967296
  %25 = ashr exact i64 %sext, 32
  %26 = inttoptr i64 %25 to ptr
  store ptr %26, ptr %23, align 8
  %27 = getelementptr inbounds i8, ptr %3, i64 40
  store i32 128, ptr %27, align 8
  %28 = getelementptr inbounds i8, ptr %3, i64 44
  store i32 2, ptr %28, align 4
  %29 = getelementptr inbounds i8, ptr %3, i64 48
  %30 = getelementptr inbounds i8, ptr %18, i64 16
  %31 = load i64, ptr %30, align 8
  store i64 %31, ptr %29, align 8
  %32 = getelementptr inbounds i8, ptr %3, i64 56
  %33 = getelementptr inbounds i8, ptr %18, i64 24
  %34 = load i32, ptr %33, align 8
  store i32 %34, ptr %32, align 8
  %35 = getelementptr inbounds i8, ptr %18, i64 28
  %36 = load i32, ptr %35, align 4
  %37 = and i32 %36, 15
  %38 = getelementptr inbounds i8, ptr %3, i64 60
  store i32 %37, ptr %38, align 4
  %39 = getelementptr inbounds i8, ptr %3, i64 64
  tail call void @llvm.memcpy.p0.p0.i64(ptr noundef nonnull align 8 dereferenceable(16) %39, ptr noundef nonnull align 8 dereferenceable(16) %18, i64 16, i1 false)
  br label %.loopexit

40:                                               ; preds = %15
  %indvars.iv.next = add i64 %indvars.iv, 1
  %41 = trunc i64 %indvars.iv.next to i32
  %42 = sub i32 %41, %6
  %.highbits = lshr i32 %42, %9
  %43 = icmp eq i32 %.highbits, 0
  br i1 %43, label %15, label %.loopexit, !llvm.loop !8

.loopexit:                                        ; preds = %40, %4, %22
  %44 = phi i1 [ true, %22 ], [ false, %4 ], [ false, %40 ]
  ret i1 %44
}